; Function Attrs: mustprogress nounwind uwtable
define hidden void @_ZN3ue27raw_dfaD0Ev(ptr noundef nonnull align 8 dereferenceable(560) initializes((0, 8)) %0) unnamed_addr #0 align 2 personality ptr @__gxx_personality_v0 {
  store ptr getelementptr inbounds nuw inrange(-16, 24) (i8, ptr @_ZTVN3ue27raw_dfaE, i64 16), ptr %0, align 8
  %2 = getelementptr inbounds nuw i8, ptr %0, i64 16
  %3 = load ptr, ptr %2, align 8
  %4 = getelementptr inbounds nuw i8, ptr %0, i64 24
  %5 = load ptr, ptr %4, align 8
  %.not4.i.i.i.i.i = icmp eq ptr %3, %5
  br i1 %.not4.i.i.i.i.i, label %_ZSt8_DestroyIPN3ue26dstateES1_EvT_S3_RSaIT0_E.exit.i.i, label %.lr.ph.i.i.i.i.i

.lr.ph.i.i.i.i.i:                                 ; preds = %1, %_ZSt8_DestroyIN3ue26dstateEEvPT_.exit.i.i.i.i.i
  %.05.i.i.i.i.i = phi ptr [ %24, %_ZSt8_DestroyIN3ue26dstateEEvPT_.exit.i.i.i.i.i ], [ %3, %1 ]
  %6 = getelementptr inbounds nuw i8, ptr %.05.i.i.i.i.i, i64 80
  %7 = load i64, ptr %6, align 8
  %.not.i.i.i.i.i.i.i.i.i.i.i = icmp eq i64 %7, 0
  br i1 %.not.i.i.i.i.i.i.i.i.i.i.i, label %_ZN3ue211flat_detail9flat_baseIjSt4lessIjESaIjEED2Ev.exit.i.i.i.i.i.i.i, label %8

8:                                                ; preds = %.lr.ph.i.i.i.i.i
  %9 = getelementptr inbounds nuw i8, ptr %.05.i.i.i.i.i, i64 64
  %10 = load ptr, ptr %9, align 8
  %11 = getelementptr inbounds nuw i8, ptr %.05.i.i.i.i.i, i64 88
  %12 = icmp eq ptr %11, %10
  br i1 %12, label %_ZN3ue211flat_detail9flat_baseIjSt4lessIjESaIjEED2Ev.exit.i.i.i.i.i.i.i, label %13

13:                                               ; preds = %8
  tail call void @_ZdlPv(ptr noundef %10) #5
  br label %_ZN3ue211flat_detail9flat_baseIjSt4lessIjESaIjEED2Ev.exit.i.i.i.i.i.i.i

_ZN3ue211flat_detail9flat_baseIjSt4lessIjESaIjEED2Ev.exit.i.i.i.i.i.i.i: ; preds = %13, %8, %.lr.ph.i.i.i.i.i
  %14 = getelementptr inbounds nuw i8, ptr %.05.i.i.i.i.i, i64 48
  %15 = load i64, ptr %14, align 8
  %.not.i.i.i.i1.i.i.i.i.i.i.i = icmp eq i64 %15, 0
  br i1 %.not.i.i.i.i1.i.i.i.i.i.i.i, label %_ZN3ue211flat_detail9flat_baseIjSt4lessIjESaIjEED2Ev.exit2.i.i.i.i.i.i.i, label %16

16:                                               ; preds = %_ZN3ue211flat_detail9flat_baseIjSt4lessIjESaIjEED2Ev.exit.i.i.i.i.i.i.i
  %17 = getelementptr inbounds nuw i8, ptr %.05.i.i.i.i.i, i64 32
  %18 = load ptr, ptr %17, align 8
  %19 = getelementptr inbounds nuw i8, ptr %.05.i.i.i.i.i, i64 56
  %20 = icmp eq ptr %19, %18
  br i1 %20, label %_ZN3ue211flat_detail9flat_baseIjSt4lessIjESaIjEED2Ev.exit2.i.i.i.i.i.i.i, label %21

21:                                               ; preds = %16
  tail call void @_ZdlPv(ptr noundef %18) #5
  br label %_ZN3ue211flat_detail9flat_baseIjSt4lessIjESaIjEED2Ev.exit2.i.i.i.i.i.i.i

_ZN3ue211flat_detail9flat_baseIjSt4lessIjESaIjEED2Ev.exit2.i.i.i.i.i.i.i: ; preds = %21, %16, %_ZN3ue211flat_detail9flat_baseIjSt4lessIjESaIjEED2Ev.exit.i.i.i.i.i.i.i
  %22 = load ptr, ptr %.05.i.i.i.i.i, align 8
  %.not.i.i.i.i.i.i.i.i.i.i = icmp eq ptr %22, null
  br i1 %.not.i.i.i.i.i.i.i.i.i.i, label %_ZSt8_DestroyIN3ue26dstateEEvPT_.exit.i.i.i.i.i, label %23

23:                                               ; preds = %_ZN3ue211flat_detail9flat_baseIjSt4lessIjESaIjEED2Ev.exit2.i.i.i.i.i.i.i
  tail call void @_ZdlPv(ptr noundef nonnull %22) #5
  br label %_ZSt8_DestroyIN3ue26dstateEEvPT_.exit.i.i.i.i.i

_ZSt8_DestroyIN3ue26dstateEEvPT_.exit.i.i.i.i.i:  ; preds = %23, %_ZN3ue211flat_detail9flat_baseIjSt4lessIjESaIjEED2Ev.exit2.i.i.i.i.i.i.i
  %24 = getelementptr inbounds nuw i8, ptr %.05.i.i.i.i.i, i64 96
  %.not.i.i.i.i.i = icmp eq ptr %24, %5
  br i1 %.not.i.i.i.i.i, label %_ZSt8_DestroyIPN3ue26dstateES1_EvT_S3_RSaIT0_E.exitthread-pre-split.i.i, label %.lr.ph.i.i.i.i.i, !llvm.loop !5

_ZSt8_DestroyIPN3ue26dstateES1_EvT_S3_RSaIT0_E.exitthread-pre-split.i.i: ; preds = %_ZSt8_DestroyIN3ue26dstateEEvPT_.exit.i.i.i.i.i
  %.pr.i.i = load ptr, ptr %2, align 8
  br label %_ZSt8_DestroyIPN3ue26dstateES1_EvT_S3_RSaIT0_E.exit.i.i

_ZSt8_DestroyIPN3ue26dstateES1_EvT_S3_RSaIT0_E.exit.i.i: ; preds = %_ZSt8_DestroyIPN3ue26dstateES1_EvT_S3_RSaIT0_E.exitthread-pre-split.i.i, %1
  %25 = phi ptr [ %.pr.i.i, %_ZSt8_DestroyIPN3ue26dstateES1_EvT_S3_RSaIT0_E.exitthread-pre-split.i.i ], [ %3, %1 ]
  %.not.i.i.i.i = icmp eq ptr %25, null
  br i1 %.not.i.i.i.i, label %_ZN3ue27raw_dfaD2Ev.exit, label %26

26:                                               ; preds = %_ZSt8_DestroyIPN3ue26dstateES1_EvT_S3_RSaIT0_E.exit.i.i
  tail call void @_ZdlPv(ptr noundef nonnull %25) #5
  br label %_ZN3ue27raw_dfaD2Ev.exit

_ZN3ue27raw_dfaD2Ev.exit:                         ; preds = %_ZSt8_DestroyIPN3ue26dstateES1_EvT_S3_RSaIT0_E.exit.i.i, %26
  tail call void @_ZdlPv(ptr noundef nonnull %0) #5
  ret void
}